; Function Attrs: mustprogress nofree norecurse nosync nounwind willreturn memory(argmem: read) uwtable
define internal range(i32 0, 6) i32 @check_purpose_crl_sign(ptr readnone captures(none) %0, ptr noundef readonly captures(none) %1, i32 noundef %2) #8 {
  %.not = icmp eq i32 %2, 0
  %4 = getelementptr inbounds nuw i8, ptr %1, i64 64
  %5 = load i64, ptr %4, align 8, !tbaa !6
  %6 = and i64 %5, 2
  br i1 %.not, label %27, label %7

7:                                                ; preds = %3
  %.not.i = icmp ne i64 %6, 0
  br i1 %.not.i, label %8, label %12

8:                                                ; preds = %7
  %9 = getelementptr inbounds nuw i8, ptr %1, i64 72
  %10 = load i64, ptr %9, align 8, !tbaa !52
  %11 = and i64 %10, 4
  %.not8.i = icmp eq i64 %11, 0
  br i1 %.not8.i, label %check_ca.exit, label %12

12:                                               ; preds = %8, %7
  %13 = and i64 %5, 1
  %.not9.i = icmp eq i64 %13, 0
  br i1 %.not9.i, label %17, label %14

14:                                               ; preds = %12
  %15 = trunc i64 %5 to i32
  %16 = lshr i32 %15, 4
  %..i = and i32 %16, 1
  br label %check_ca.exit

17:                                               ; preds = %12
  %18 = and i64 %5, 8256
  %19 = icmp eq i64 %18, 8256
  %brmerge.i = or i1 %19, %.not.i
  %.mux.i = select i1 %19, i32 3, i32 4
  br i1 %brmerge.i, label %check_ca.exit, label %20

20:                                               ; preds = %17
  %21 = and i64 %5, 8
  %.not11.i = icmp eq i64 %21, 0
  br i1 %.not11.i, label %26, label %22

22:                                               ; preds = %20
  %23 = getelementptr inbounds nuw i8, ptr %1, i64 88
  %24 = load i64, ptr %23, align 8, !tbaa !56
  %25 = and i64 %24, 7
  %.not12.i = icmp eq i64 %25, 0
  br i1 %.not12.i, label %26, label %check_ca.exit

26:                                               ; preds = %22, %20
  br label %check_ca.exit

27:                                               ; preds = %3
  %.not6 = icmp eq i64 %6, 0
  br i1 %.not6, label %32, label %28

28:                                               ; preds = %27
  %29 = getelementptr inbounds nuw i8, ptr %1, i64 72
  %30 = load i64, ptr %29, align 8, !tbaa !52
  %31 = and i64 %30, 2
  %.not7 = icmp eq i64 %31, 0
  br i1 %.not7, label %check_ca.exit, label %32

32:                                               ; preds = %28, %27
  br label %check_ca.exit

check_ca.exit:                                    ; preds = %26, %22, %17, %14, %8, %28, %32
  %.1 = phi i32 [ 1, %32 ], [ 0, %28 ], [ 0, %26 ], [ 0, %8 ], [ %..i, %14 ], [ %.mux.i, %17 ], [ 5, %22 ]
  ret i32 %.1
}